target datalayout = "e-m:e-p270:32:32-p271:32:32-p272:64:64-i64:64-i128:128-f80:128-n8:16:32:64-S128"
target triple = "x86_64-pc-linux-gnu"

%class.CollectedHeap = type { ptr, ptr, i64, i64, %class.SoftRefPolicy, %class.MemRegion, i8, i64, i32, i32, i32, i32, ptr, ptr }
%class.SoftRefPolicy = type { i8, i8 }
%class.MemRegion = type { ptr, i64 }
%class.GCCauseSetter = type <{ ptr, i32, [4 x i8] }>
%class.HandleMark = type { ptr, ptr, ptr, ptr, ptr, i64, ptr }

@UsePerfData = external global i8, align 1
@g_assert_poison = external global ptr, align 8
@.str.13 = private unnamed_addr constant [46 x i8] c"src/hotspot/share/gc/shared/collectedHeap.cpp\00", align 1
@_ZN6Thread12_thr_currentE = external thread_local global ptr, align 8

; Function Attrs: mustprogress nounwind uwtable
define linkonce_odr hidden void @_ZN18PerfStringVariable9set_valueEPKc(ptr noundef nonnull align 8 dereferenceable(52) %0, ptr noundef %1) #1 comdat align 2 {
  %3 = alloca ptr, align 8
  %4 = alloca ptr, align 8
  store ptr %0, ptr %3, align 8
  store ptr %1, ptr %4, align 8
  %5 = load ptr, ptr %3, align 8
  %6 = load ptr, ptr %4, align 8
  call void @_ZN10PerfString10set_stringEPKc(ptr noundef nonnull align 8 dereferenceable(52) %5, ptr noundef %6)
  ret void
}

; Function Attrs: mustprogress nounwind uwtable
define hidden void @_ZN13CollectedHeap12set_gc_causeEN7GCCause5CauseE(ptr noundef nonnull align 8 dereferenceable(104) %0, i32 noundef %1) #1 align 2 {
  %3 = alloca ptr, align 8
  %4 = alloca i32, align 4
  store ptr %0, ptr %3, align 8
  store i32 %1, ptr %4, align 4
  %5 = load ptr, ptr %3, align 8
  %6 = load i8, ptr @UsePerfData, align 1
  %7 = trunc i8 %6 to i1
  br i1 %7, label %8, label %21

8:                                                ; preds = %2
  %9 = getelementptr inbounds %class.CollectedHeap, ptr %5, i32 0, i32 10
  %10 = load i32, ptr %9, align 8
  %11 = getelementptr inbounds %class.CollectedHeap, ptr %5, i32 0, i32 11
  store i32 %10, ptr %11, align 4
  %12 = getelementptr inbounds %class.CollectedHeap, ptr %5, i32 0, i32 13
  %13 = load ptr, ptr %12, align 8
  %14 = getelementptr inbounds %class.CollectedHeap, ptr %5, i32 0, i32 11
  %15 = load i32, ptr %14, align 4
  %16 = call noundef ptr @_ZN7GCCause9to_stringENS_5CauseE(i32 noundef %15)
  call void @_ZN18PerfStringVariable9set_valueEPKc(ptr noundef nonnull align 8 dereferenceable(52) %13, ptr noundef %16)
  %17 = getelementptr inbounds %class.CollectedHeap, ptr %5, i32 0, i32 12
  %18 = load ptr, ptr %17, align 8
  %19 = load i32, ptr %4, align 4
  %20 = call noundef ptr @_ZN7GCCause9to_stringENS_5CauseE(i32 noundef %19)
  call void @_ZN18PerfStringVariable9set_valueEPKc(ptr noundef nonnull align 8 dereferenceable(52) %18, ptr noundef %20)
  br label %21

21:                                               ; preds = %8, %2
  %22 = load i32, ptr %4, align 4
  %23 = getelementptr inbounds %class.CollectedHeap, ptr %5, i32 0, i32 10
  store i32 %22, ptr %23, align 8
  ret void
}

; Function Attrs: mustprogress nounwind uwtable
define linkonce_odr hidden noundef i32 @_ZN13CollectedHeap8gc_causeEv(ptr noundef nonnull align 8 dereferenceable(104) %0) #1 comdat align 2 {
  %2 = alloca ptr, align 8
  store ptr %0, ptr %2, align 8
  %3 = load ptr, ptr %2, align 8
  %4 = getelementptr inbounds %class.CollectedHeap, ptr %3, i32 0, i32 10
  %5 = load i32, ptr %4, align 8
  ret i32 %5
}

; Function Attrs: mustprogress nounwind uwtable
define linkonce_odr hidden noundef ptr @_ZN6Thread15current_or_nullEv() #1 comdat align 2 {
  %1 = call align 8 ptr @llvm.threadlocal.address.p0(ptr align 8 @_ZN6Thread12_thr_currentE)
  %2 = load ptr, ptr %1, align 8
  ret ptr %2
}

; Function Attrs: mustprogress nounwind uwtable
define linkonce_odr hidden void @_ZN13GCCauseSetterD2Ev(ptr noundef nonnull align 8 dereferenceable(12) %0) unnamed_addr #1 comdat align 2 {
  %2 = alloca ptr, align 8
  store ptr %0, ptr %2, align 8
  %3 = load ptr, ptr %2, align 8
  %4 = getelementptr inbounds %class.GCCauseSetter, ptr %3, i32 0, i32 0
  %5 = load ptr, ptr %4, align 8
  %6 = getelementptr inbounds %class.GCCauseSetter, ptr %3, i32 0, i32 1
  %7 = load i32, ptr %6, align 8
  call void @_ZN13CollectedHeap12set_gc_causeEN7GCCause5CauseE(ptr noundef nonnull align 8 dereferenceable(104) %5, i32 noundef %7)
  ret void
}

; Function Attrs: mustprogress nounwind uwtable
define linkonce_odr hidden void @_ZN10HandleMarkC2EP6Thread(ptr noundef nonnull align 8 dereferenceable(56) %0, ptr noundef %1) unnamed_addr #1 comdat align 2 {
  %3 = alloca ptr, align 8
  %4 = alloca ptr, align 8
  store ptr %0, ptr %3, align 8
  store ptr %1, ptr %4, align 8
  %5 = load ptr, ptr %3, align 8
  %6 = load ptr, ptr %4, align 8
  call void @_ZN10HandleMark10initializeEP6Thread(ptr noundef nonnull align 8 dereferenceable(56) %5, ptr noundef %6)
  ret void
}

; Function Attrs: mustprogress nounwind uwtable
define linkonce_odr hidden void @_ZN13GCCauseSetterC2EP13CollectedHeapN7GCCause5CauseE(ptr noundef nonnull align 8 dereferenceable(12) %0, ptr noundef %1, i32 noundef %2) unnamed_addr #1 comdat align 2 {
  %4 = alloca ptr, align 8
  %5 = alloca ptr, align 8
  %6 = alloca i32, align 4
  store ptr %0, ptr %4, align 8
  store ptr %1, ptr %5, align 8
  store i32 %2, ptr %6, align 4
  %7 = load ptr, ptr %4, align 8
  %8 = load ptr, ptr %5, align 8
  %9 = getelementptr inbounds %class.GCCauseSetter, ptr %7, i32 0, i32 0
  store ptr %8, ptr %9, align 8
  %10 = getelementptr inbounds %class.GCCauseSetter, ptr %7, i32 0, i32 0
  %11 = load ptr, ptr %10, align 8
  %12 = call noundef i32 @_ZN13CollectedHeap8gc_causeEv(ptr noundef nonnull align 8 dereferenceable(104) %11)
  %13 = getelementptr inbounds %class.GCCauseSetter, ptr %7, i32 0, i32 1
  store i32 %12, ptr %13, align 8
  %14 = getelementptr inbounds %class.GCCauseSetter, ptr %7, i32 0, i32 0
  %15 = load ptr, ptr %14, align 8
  %16 = load i32, ptr %6, align 4
  call void @_ZN13CollectedHeap12set_gc_causeEN7GCCause5CauseE(ptr noundef nonnull align 8 dereferenceable(104) %15, i32 noundef %16)
  ret void
}

; Function Attrs: mustprogress nounwind uwtable
define linkonce_odr hidden noundef ptr @_ZN6Thread7currentEv() #1 comdat align 2 {
  %1 = alloca ptr, align 8
  %2 = call noundef ptr @_ZN6Thread15current_or_nullEv()
  store ptr %2, ptr %1, align 8
  %3 = load ptr, ptr %1, align 8
  ret ptr %3
}

; Function Attrs: mustprogress nounwind uwtable
define hidden void @_ZN13CollectedHeap20collect_as_vm_threadEN7GCCause5CauseE(ptr noundef nonnull align 8 dereferenceable(104) %0, i32 noundef %1) unnamed_addr #1 align 2 {
  %3 = alloca ptr, align 8
  %4 = alloca i32, align 4
  %5 = alloca ptr, align 8
  %6 = alloca %class.GCCauseSetter, align 8
  %7 = alloca %class.HandleMark, align 8
  %8 = alloca %class.HandleMark, align 8
  store ptr %0, ptr %3, align 8
  store i32 %1, ptr %4, align 4
  %9 = load ptr, ptr %3, align 8
  %10 = call noundef ptr @_ZN6Thread7currentEv()
  store ptr %10, ptr %5, align 8
  %11 = load i32, ptr %4, align 4
  call void @_ZN13GCCauseSetterC2EP13CollectedHeapN7GCCause5CauseE(ptr noundef nonnull align 8 dereferenceable(12) %6, ptr noundef %9, i32 noundef %11)
  %12 = load i32, ptr %4, align 4
  switch i32 %12, label %23 [
    i32 14, label %13
    i32 15, label %13
    i32 6, label %13
    i32 7, label %13
    i32 16, label %13
    i32 17, label %18
  ]

13:                                               ; preds = %2, %2, %2, %2, %2
  %14 = load ptr, ptr %5, align 8
  call void @_ZN10HandleMarkC2EP6Thread(ptr noundef nonnull align 8 dereferenceable(56) %7, ptr noundef %14)
  %15 = load ptr, ptr %9, align 8
  %16 = getelementptr inbounds ptr, ptr %15, i64 25
  %17 = load ptr, ptr %16, align 8
  call void %17(ptr noundef nonnull align 8 dereferenceable(104) %9, i1 noundef zeroext false)
  call void @_ZN10HandleMarkD1Ev(ptr noundef nonnull align 8 dereferenceable(56) %7) #11
  br label %28

18:                                               ; preds = %2
  %19 = load ptr, ptr %5, align 8
  call void @_ZN10HandleMarkC2EP6Thread(ptr noundef nonnull align 8 dereferenceable(56) %8, ptr noundef %19)
  %20 = load ptr, ptr %9, align 8
  %21 = getelementptr inbounds ptr, ptr %20, i64 25
  %22 = load ptr, ptr %21, align 8
  call void %22(ptr noundef nonnull align 8 dereferenceable(104) %9, i1 noundef zeroext true)
  call void @_ZN10HandleMarkD1Ev(ptr noundef nonnull align 8 dereferenceable(56) %8) #11
  br label %28

23:                                               ; preds = %2
  br label %24

24:                                               ; preds = %23
  %25 = load ptr, ptr @g_assert_poison, align 8
  store i8 88, ptr %25, align 1
  call void @_Z28report_should_not_reach_herePKci(ptr noundef @.str.13, i32 noundef 314) #12
  unreachable

26:                                               ; No predecessors!
  br label %27

27:                                               ; preds = %26
  br label %28

28:                                               ; preds = %27, %18, %13
  call void @_ZN13GCCauseSetterD2Ev(ptr noundef nonnull align 8 dereferenceable(12) %6) #11
  ret void
}