; Function Attrs: mustprogress nounwind uwtable
define hidden void @_ZN13CollectedHeap20collect_as_vm_threadEN7GCCause5CauseE(ptr noundef nonnull align 8 dereferenceable(104) %0, i32 noundef %1) unnamed_addr #0 align 2 {
  %3 = alloca %class.HandleMark, align 8
  %4 = alloca %class.HandleMark, align 8
  %5 = tail call align 8 ptr @llvm.threadlocal.address.p0(ptr align 8 @_ZN6Thread12_thr_currentE)
  %6 = load ptr, ptr %5, align 8
  %7 = getelementptr inbounds i8, ptr %0, i64 80
  %8 = load i32, ptr %7, align 8
  %9 = load i8, ptr @UsePerfData, align 1
  %10 = trunc i8 %9 to i1
  br i1 %10, label %11, label %_ZN13GCCauseSetterC2EP13CollectedHeapN7GCCause5CauseE.exit

11:                                               ; preds = %2
  %12 = getelementptr inbounds i8, ptr %0, i64 84
  store i32 %8, ptr %12, align 4
  %13 = getelementptr inbounds i8, ptr %0, i64 96
  %14 = load ptr, ptr %13, align 8
  %15 = tail call noundef ptr @_ZN7GCCause9to_stringENS_5CauseE(i32 noundef %8) #18
  tail call void @_ZN10PerfString10set_stringEPKc(ptr noundef nonnull align 8 dereferenceable(52) %14, ptr noundef %15) #18
  %16 = getelementptr inbounds i8, ptr %0, i64 88
  %17 = load ptr, ptr %16, align 8
  %18 = tail call noundef ptr @_ZN7GCCause9to_stringENS_5CauseE(i32 noundef %1) #18
  tail call void @_ZN10PerfString10set_stringEPKc(ptr noundef nonnull align 8 dereferenceable(52) %17, ptr noundef %18) #18
  br label %_ZN13GCCauseSetterC2EP13CollectedHeapN7GCCause5CauseE.exit

_ZN13GCCauseSetterC2EP13CollectedHeapN7GCCause5CauseE.exit: ; preds = %2, %11
  store i32 %1, ptr %7, align 8
  switch i32 %1, label %20 [
    i32 14, label %22
    i32 15, label %22
    i32 6, label %22
    i32 7, label %22
    i32 16, label %22
    i32 17, label %19
  ]

19:                                               ; preds = %_ZN13GCCauseSetterC2EP13CollectedHeapN7GCCause5CauseE.exit
  br label %22

20:                                               ; preds = %_ZN13GCCauseSetterC2EP13CollectedHeapN7GCCause5CauseE.exit
  %21 = load ptr, ptr @g_assert_poison, align 8
  store i8 88, ptr %21, align 1
  tail call void @_Z28report_should_not_reach_herePKci(ptr noundef nonnull @.str.13, i32 noundef 314) #20
  unreachable

22:                                               ; preds = %_ZN13GCCauseSetterC2EP13CollectedHeapN7GCCause5CauseE.exit, %_ZN13GCCauseSetterC2EP13CollectedHeapN7GCCause5CauseE.exit, %_ZN13GCCauseSetterC2EP13CollectedHeapN7GCCause5CauseE.exit, %_ZN13GCCauseSetterC2EP13CollectedHeapN7GCCause5CauseE.exit, %_ZN13GCCauseSetterC2EP13CollectedHeapN7GCCause5CauseE.exit, %19
  %.sink8 = phi ptr [ %4, %19 ], [ %3, %_ZN13GCCauseSetterC2EP13CollectedHeapN7GCCause5CauseE.exit ], [ %3, %_ZN13GCCauseSetterC2EP13CollectedHeapN7GCCause5CauseE.exit ], [ %3, %_ZN13GCCauseSetterC2EP13CollectedHeapN7GCCause5CauseE.exit ], [ %3, %_ZN13GCCauseSetterC2EP13CollectedHeapN7GCCause5CauseE.exit ], [ %3, %_ZN13GCCauseSetterC2EP13CollectedHeapN7GCCause5CauseE.exit ]
  %.sink4 = phi i1 [ true, %19 ], [ false, %_ZN13GCCauseSetterC2EP13CollectedHeapN7GCCause5CauseE.exit ], [ false, %_ZN13GCCauseSetterC2EP13CollectedHeapN7GCCause5CauseE.exit ], [ false, %_ZN13GCCauseSetterC2EP13CollectedHeapN7GCCause5CauseE.exit ], [ false, %_ZN13GCCauseSetterC2EP13CollectedHeapN7GCCause5CauseE.exit ], [ false, %_ZN13GCCauseSetterC2EP13CollectedHeapN7GCCause5CauseE.exit ]
  call void @_ZN10HandleMark10initializeEP6Thread(ptr noundef nonnull align 8 dereferenceable(56) %.sink8, ptr noundef %6) #18
  %23 = load ptr, ptr %0, align 8
  %24 = getelementptr inbounds i8, ptr %23, i64 200
  %25 = load ptr, ptr %24, align 8
  call void %25(ptr noundef nonnull align 8 dereferenceable(104) %0, i1 noundef zeroext %.sink4) #18
  call void @_ZN10HandleMarkD1Ev(ptr noundef nonnull align 8 dereferenceable(56) %.sink8) #18
  %26 = load i8, ptr @UsePerfData, align 1
  %27 = trunc i8 %26 to i1
  br i1 %27, label %28, label %_ZN13GCCauseSetterD2Ev.exit

28:                                               ; preds = %22
  %29 = load i32, ptr %7, align 8
  %30 = getelementptr inbounds i8, ptr %0, i64 84
  store i32 %29, ptr %30, align 4
  %31 = getelementptr inbounds i8, ptr %0, i64 96
  %32 = load ptr, ptr %31, align 8
  %33 = call noundef ptr @_ZN7GCCause9to_stringENS_5CauseE(i32 noundef %29) #18
  call void @_ZN10PerfString10set_stringEPKc(ptr noundef nonnull align 8 dereferenceable(52) %32, ptr noundef %33) #18
  %34 = getelementptr inbounds i8, ptr %0, i64 88
  %35 = load ptr, ptr %34, align 8
  %36 = call noundef ptr @_ZN7GCCause9to_stringENS_5CauseE(i32 noundef %8) #18
  call void @_ZN10PerfString10set_stringEPKc(ptr noundef nonnull align 8 dereferenceable(52) %35, ptr noundef %36) #18
  br label %_ZN13GCCauseSetterD2Ev.exit

_ZN13GCCauseSetterD2Ev.exit:                      ; preds = %22, %28
  store i32 %8, ptr %7, align 8
  ret void
}